(lp0
(lp1
S'degree'
p2
aS'frequency'
p3
aa(lp4
S'9'
p5
aI1
aa(lp6
S'6'
p7
aI1
aa(lp8
S'5'
p9
aI2
aa(lp10
S'4'
p11
aI2
aa(lp12
S'3'
p13
aI2
aa(lp14
S'2'
p15
aI8
aa(lp16
S'1'
p17
aI17
aa(lp18
S'0'
p19
aI17
aa.